target datalayout = "e-m:e-p270:32:32-p271:32:32-p272:64:64-i64:64-i128:128-f80:128-n8:16:32:64-S128"
target triple = "x86_64-pc-linux-gnu"

; Function Attrs: mustprogress nounwind uwtable
define linkonce_odr hidden noundef ptr @_ZNSt11__copy_moveILb0ELb1ESt26random_access_iterator_tagE8__copy_mIyEEPT_PKS3_S6_S4_(ptr noundef %0, ptr noundef %1, ptr noundef %2) #7 comdat align 2 {
  %4 = alloca ptr, align 8
  %5 = alloca ptr, align 8
  %6 = alloca ptr, align 8
  %7 = alloca i64, align 8
  store ptr %0, ptr %4, align 8, !tbaa !55
  store ptr %1, ptr %5, align 8, !tbaa !55
  store ptr %2, ptr %6, align 8, !tbaa !55
  call void @llvm.lifetime.start.p0(i64 8, ptr %7) #3
  %8 = load ptr, ptr %5, align 8, !tbaa !55
  %9 = load ptr, ptr %4, align 8, !tbaa !55
  %10 = ptrtoint ptr %8 to i64
  %11 = ptrtoint ptr %9 to i64
  %12 = sub i64 %10, %11
  %13 = sdiv exact i64 %12, 8
  store i64 %13, ptr %7, align 8, !tbaa !20
  %14 = load i64, ptr %7, align 8, !tbaa !20
  %15 = icmp ne i64 %14, 0
  br i1 %15, label %16, label %21

16:                                               ; preds = %3
  %17 = load ptr, ptr %6, align 8, !tbaa !55
  %18 = load ptr, ptr %4, align 8, !tbaa !55
  %19 = load i64, ptr %7, align 8, !tbaa !20
  %20 = mul i64 8, %19
  call void @llvm.memmove.p0.p0.i64(ptr align 8 %17, ptr align 8 %18, i64 %20, i1 false)
  br label %21

21:                                               ; preds = %16, %3
  %22 = load ptr, ptr %6, align 8, !tbaa !55
  %23 = load i64, ptr %7, align 8, !tbaa !20
  %24 = getelementptr inbounds i64, ptr %22, i64 %23
  call void @llvm.lifetime.end.p0(i64 8, ptr %7) #3
  ret ptr %24
}

; Function Attrs: inlinehint mustprogress uwtable
define linkonce_odr noundef ptr @_ZSt14__copy_move_a2ILb0EPKyPyET1_T0_S4_S3_(ptr noundef %0, ptr noundef %1, ptr noundef %2) #6 comdat {
  %4 = alloca ptr, align 8
  %5 = alloca ptr, align 8
  %6 = alloca ptr, align 8
  store ptr %0, ptr %4, align 8, !tbaa !55
  store ptr %1, ptr %5, align 8, !tbaa !55
  store ptr %2, ptr %6, align 8, !tbaa !55
  %7 = load ptr, ptr %4, align 8, !tbaa !55
  %8 = load ptr, ptr %5, align 8, !tbaa !55
  %9 = load ptr, ptr %6, align 8, !tbaa !55
  %10 = call noundef ptr @_ZNSt11__copy_moveILb0ELb1ESt26random_access_iterator_tagE8__copy_mIyEEPT_PKS3_S6_S4_(ptr noundef %7, ptr noundef %8, ptr noundef %9)
  ret ptr %10
}

; Function Attrs: inlinehint mustprogress nounwind uwtable
define linkonce_odr noundef ptr @_ZSt12__niter_wrapIPyET_RKS1_S1_(ptr noundef nonnull align 8 dereferenceable(8) %0, ptr noundef %1) #8 comdat {
  %3 = alloca ptr, align 8
  %4 = alloca ptr, align 8
  store ptr %0, ptr %3, align 8, !tbaa !69
  store ptr %1, ptr %4, align 8, !tbaa !55
  %5 = load ptr, ptr %4, align 8, !tbaa !55
  ret ptr %5
}

; Function Attrs: inlinehint mustprogress uwtable
define linkonce_odr noundef ptr @_ZSt14__copy_move_a1ILb0EPKyPyET1_T0_S4_S3_(ptr noundef %0, ptr noundef %1, ptr noundef %2) #6 comdat {
  %4 = alloca ptr, align 8
  %5 = alloca ptr, align 8
  %6 = alloca ptr, align 8
  store ptr %0, ptr %4, align 8, !tbaa !55
  store ptr %1, ptr %5, align 8, !tbaa !55
  store ptr %2, ptr %6, align 8, !tbaa !55
  %7 = load ptr, ptr %4, align 8, !tbaa !55
  %8 = load ptr, ptr %5, align 8, !tbaa !55
  %9 = load ptr, ptr %6, align 8, !tbaa !55
  %10 = call noundef ptr @_ZSt14__copy_move_a2ILb0EPKyPyET1_T0_S4_S3_(ptr noundef %7, ptr noundef %8, ptr noundef %9)
  ret ptr %10
}

; Function Attrs: inlinehint mustprogress nounwind uwtable
define linkonce_odr noundef ptr @_ZSt12__niter_baseIPyET_S1_(ptr noundef %0) #8 comdat {
  %2 = alloca ptr, align 8
  store ptr %0, ptr %2, align 8, !tbaa !55
  %3 = load ptr, ptr %2, align 8, !tbaa !55
  ret ptr %3
}

; Function Attrs: inlinehint mustprogress nounwind uwtable
define linkonce_odr noundef ptr @_ZSt12__niter_baseIPKyET_S2_(ptr noundef %0) #8 comdat {
  %2 = alloca ptr, align 8
  store ptr %0, ptr %2, align 8, !tbaa !55
  %3 = load ptr, ptr %2, align 8, !tbaa !55
  ret ptr %3
}

; Function Attrs: inlinehint mustprogress uwtable
define linkonce_odr noundef ptr @_ZSt13__copy_move_aILb0EPKyPyET1_T0_S4_S3_(ptr noundef %0, ptr noundef %1, ptr noundef %2) #6 comdat {
  %4 = alloca ptr, align 8
  %5 = alloca ptr, align 8
  %6 = alloca ptr, align 8
  store ptr %0, ptr %4, align 8, !tbaa !55
  store ptr %1, ptr %5, align 8, !tbaa !55
  store ptr %2, ptr %6, align 8, !tbaa !55
  %7 = load ptr, ptr %4, align 8, !tbaa !55
  %8 = call noundef ptr @_ZSt12__niter_baseIPKyET_S2_(ptr noundef %7) #3
  %9 = load ptr, ptr %5, align 8, !tbaa !55
  %10 = call noundef ptr @_ZSt12__niter_baseIPKyET_S2_(ptr noundef %9) #3
  %11 = load ptr, ptr %6, align 8, !tbaa !55
  %12 = call noundef ptr @_ZSt12__niter_baseIPyET_S1_(ptr noundef %11) #3
  %13 = call noundef ptr @_ZSt14__copy_move_a1ILb0EPKyPyET1_T0_S4_S3_(ptr noundef %8, ptr noundef %10, ptr noundef %12)
  %14 = call noundef ptr @_ZSt12__niter_wrapIPyET_RKS1_S1_(ptr noundef nonnull align 8 dereferenceable(8) %6, ptr noundef %13)
  ret ptr %14
}

; Function Attrs: inlinehint mustprogress nounwind uwtable
define linkonce_odr noundef ptr @_ZSt12__miter_baseIPKyET_S2_(ptr noundef %0) #8 comdat {
  %2 = alloca ptr, align 8
  store ptr %0, ptr %2, align 8, !tbaa !55
  %3 = load ptr, ptr %2, align 8, !tbaa !55
  ret ptr %3
}

; Function Attrs: inlinehint mustprogress uwtable
define linkonce_odr noundef ptr @_ZSt4copyIPKyPyET0_T_S4_S3_(ptr noundef %0, ptr noundef %1, ptr noundef %2) #6 comdat {
  %4 = alloca ptr, align 8
  %5 = alloca ptr, align 8
  %6 = alloca ptr, align 8
  store ptr %0, ptr %4, align 8, !tbaa !55
  store ptr %1, ptr %5, align 8, !tbaa !55
  store ptr %2, ptr %6, align 8, !tbaa !55
  %7 = load ptr, ptr %4, align 8, !tbaa !55
  %8 = call noundef ptr @_ZSt12__miter_baseIPKyET_S2_(ptr noundef %7)
  %9 = load ptr, ptr %5, align 8, !tbaa !55
  %10 = call noundef ptr @_ZSt12__miter_baseIPKyET_S2_(ptr noundef %9)
  %11 = load ptr, ptr %6, align 8, !tbaa !55
  %12 = call noundef ptr @_ZSt13__copy_move_aILb0EPKyPyET1_T0_S4_S3_(ptr noundef %8, ptr noundef %10, ptr noundef %11)
  ret ptr %12
}

; Function Attrs: mustprogress uwtable
define linkonce_odr hidden noundef i64 @_ZNK6casadi6MXNode3nnzEx(ptr noundef nonnull align 8 dereferenceable(64) %0, i64 noundef %1) #4 comdat align 2 {
  %3 = alloca ptr, align 8
  %4 = alloca i64, align 8
  store ptr %0, ptr %3, align 8, !tbaa !59
  store i64 %1, ptr %4, align 8, !tbaa !39
  %5 = load ptr, ptr %3, align 8
  %6 = load i64, ptr %4, align 8, !tbaa !39
  %7 = load ptr, ptr %5, align 8, !tbaa !12
  %8 = getelementptr inbounds ptr, ptr %7, i64 49
  %9 = load ptr, ptr %8, align 8
  %10 = call noundef nonnull align 8 dereferenceable(8) ptr %9(ptr noundef nonnull align 8 dereferenceable(64) %5, i64 noundef %6)
  %11 = call noundef i64 @_ZNK6casadi8Sparsity3nnzEv(ptr noundef nonnull align 8 dereferenceable(8) %10)
  ret i64 %11
}

; Function Attrs: mustprogress uwtable
define noundef i32 @_ZNK6casadi7Monitor10sp_forwardEPPKyPPyPxS4_(ptr noundef nonnull align 8 dereferenceable(96) %0, ptr noundef %1, ptr noundef %2, ptr noundef %3, ptr noundef %4) unnamed_addr #4 align 2 {
  %6 = alloca ptr, align 8
  %7 = alloca ptr, align 8
  %8 = alloca ptr, align 8
  %9 = alloca ptr, align 8
  %10 = alloca ptr, align 8
  store ptr %0, ptr %6, align 8, !tbaa !3
  store ptr %1, ptr %7, align 8, !tbaa !69
  store ptr %2, ptr %8, align 8, !tbaa !69
  store ptr %3, ptr %9, align 8, !tbaa !55
  store ptr %4, ptr %10, align 8, !tbaa !55
  %11 = load ptr, ptr %6, align 8
  %12 = load ptr, ptr %7, align 8, !tbaa !69
  %13 = getelementptr inbounds ptr, ptr %12, i64 0
  %14 = load ptr, ptr %13, align 8, !tbaa !55
  %15 = load ptr, ptr %8, align 8, !tbaa !69
  %16 = getelementptr inbounds ptr, ptr %15, i64 0
  %17 = load ptr, ptr %16, align 8, !tbaa !55
  %18 = icmp ne ptr %14, %17
  br i1 %18, label %19, label %32

19:                                               ; preds = %5
  %20 = load ptr, ptr %7, align 8, !tbaa !69
  %21 = getelementptr inbounds ptr, ptr %20, i64 0
  %22 = load ptr, ptr %21, align 8, !tbaa !55
  %23 = load ptr, ptr %7, align 8, !tbaa !69
  %24 = getelementptr inbounds ptr, ptr %23, i64 0
  %25 = load ptr, ptr %24, align 8, !tbaa !55
  %26 = call noundef i64 @_ZNK6casadi6MXNode3nnzEx(ptr noundef nonnull align 8 dereferenceable(64) %11, i64 noundef 0)
  %27 = getelementptr inbounds i64, ptr %25, i64 %26
  %28 = load ptr, ptr %8, align 8, !tbaa !69
  %29 = getelementptr inbounds ptr, ptr %28, i64 0
  %30 = load ptr, ptr %29, align 8, !tbaa !55
  %31 = call noundef ptr @_ZSt4copyIPKyPyET0_T_S4_S3_(ptr noundef %22, ptr noundef %27, ptr noundef %30)
  br label %32

32:                                               ; preds = %19, %5
  ret i32 0
}